; Function Attrs: mustprogress nofree norecurse nosync nounwind willreturn memory(readwrite, inaccessiblemem: none) uwtable
define void @Cbs2_ObjCreateFanout(ptr noundef readonly captures(none) %0, i32 noundef %1, i32 noundef %2, i32 noundef %3) local_unnamed_addr #14 {
  %5 = shl nsw i32 %1, 1
  %6 = getelementptr i8, ptr %0, i64 248
  %.val13 = load ptr, ptr %6, align 8, !tbaa !35
  %7 = sext i32 %2 to i64
  %8 = getelementptr inbounds i32, ptr %.val13, i64 %7
  %9 = load i32, ptr %8, align 4, !tbaa !60
  %10 = getelementptr i8, ptr %0, i64 232
  %.val14 = load ptr, ptr %10, align 8, !tbaa !35
  %11 = sext i32 %5 to i64
  %12 = getelementptr inbounds i32, ptr %.val14, i64 %11
  store i32 %9, ptr %12, align 4, !tbaa !60
  %13 = or disjoint i32 %5, 1
  %14 = sext i32 %3 to i64
  %15 = getelementptr inbounds i32, ptr %.val13, i64 %14
  %16 = load i32, ptr %15, align 4, !tbaa !60
  %17 = sext i32 %13 to i64
  %18 = getelementptr inbounds i32, ptr %.val14, i64 %17
  store i32 %16, ptr %18, align 4, !tbaa !60
  store i32 %5, ptr %8, align 4, !tbaa !60
  store i32 %13, ptr %15, align 4, !tbaa !60
  ret void
}